(dp0
S'producers'
p1
(lp2
(dp3
S'date'
p4
cdatetime
date
p5
(S'\x07\xbe\x02\x0b'
p6
tp7
Rp8
sS'id'
p9
I100
sS'name'
p10
S'Tarantino'
p11
sa(dp12
g4
g5
(S'\x07\xab\x08\x17'
p13
tp14
Rp15
sg9
I101
sg10
S'Skripka'
p16
sa(dp17
g4
g5
(S'\x07\xb5\x0b\x0e'
p18
tp19
Rp20
sg9
I102
sg10
S'Shaskovich'
p21
sasS'films'
p22
(lp23
(dp24
S'film_name'
p25
S'School'
p26
sg9
I200
sS'producer'
p27
g11
sS'country'
p28
S'USA'
p29
sa(dp30
g25
S'Legend'
p31
sg9
I201
sg27
g16
sg28
S'Ukraine'
p32
sa(dp33
g25
S'Shark'
p34
sg9
I202
sg27
g16
sg28
g32
sa(dp35
g25
S'Walking dead'
p36
sg9
I203
sg27
g21
sg28
S'Italy'
p37
sasS'config'
p38
(dp39
S'fid_current'
p40
I204
sS'pid_current'
p41
I103
sS'initMe'
p42
I00
ss.